; Function Attrs: nounwind uwtable
define hidden noundef ptr @je_base_alloc_edata(ptr noundef %0, ptr noundef %1) local_unnamed_addr #1 {
  %3 = alloca i64, align 8
  %4 = alloca i64, align 8
  call void @llvm.lifetime.start.p0(i64 8, ptr nonnull %3) #10
  call void @llvm.lifetime.start.p0(i64 8, ptr nonnull %4) #10
  %5 = call fastcc ptr @base_alloc_impl(ptr noundef %0, ptr noundef %1, i64 noundef 128, i64 noundef 128, ptr noundef nonnull %3, ptr noundef nonnull %4)
  %6 = icmp eq ptr %5, null
  br i1 %6, label %18, label %7

7:                                                ; preds = %2
  %8 = load i64, ptr %4, align 8, !tbaa !11
  %9 = getelementptr inbounds nuw i8, ptr %1, i64 3904
  %10 = load i64, ptr %9, align 8, !tbaa !64
  %11 = add i64 %10, %8
  store i64 %11, ptr %9, align 8, !tbaa !64
  %12 = load i64, ptr %3, align 8, !tbaa !11
  %13 = getelementptr inbounds nuw i8, ptr %5, i64 16
  %14 = load i64, ptr %13, align 8, !tbaa !16
  %15 = and i64 %14, -4096
  %16 = and i64 %12, 4095
  %17 = or disjoint i64 %15, %16
  store i64 %17, ptr %13, align 8, !tbaa !16
  br label %18

18:                                               ; preds = %2, %7
  call void @llvm.lifetime.end.p0(i64 8, ptr nonnull %4) #10
  call void @llvm.lifetime.end.p0(i64 8, ptr nonnull %3) #10
  ret ptr %5
}